; Function Attrs: mustprogress uwtable
define hidden void @_ZN3euf14specrel_plugin4undoEv(ptr nocapture noundef nonnull readonly align 8 dereferenceable(72) %this) unnamed_addr #3 align 2 {
entry:
  %m_undo = getelementptr inbounds i8, ptr %this, i64 24
  %0 = load ptr, ptr %m_undo, align 8
  %cmp.i.i = icmp eq ptr %0, null
  br i1 %cmp.i.i, label %entry._ZN6vectorIPN3euf9ac_pluginELb0EjE4backEv.exit_crit_edge, label %if.end.i.i

entry._ZN6vectorIPN3euf9ac_pluginELb0EjE4backEv.exit_crit_edge: ; preds = %entry
  %.pre = load i32, ptr inttoptr (i64 -4 to ptr), align 4
  %.pre1 = add i32 %.pre, -1
  br label %_ZN6vectorIPN3euf9ac_pluginELb0EjE4backEv.exit

if.end.i.i:                                       ; preds = %entry
  %arrayidx.i.i = getelementptr inbounds i8, ptr %0, i64 -4
  %1 = load i32, ptr %arrayidx.i.i, align 4
  %2 = add i32 %1, -1
  %3 = zext i32 %2 to i64
  br label %_ZN6vectorIPN3euf9ac_pluginELb0EjE4backEv.exit

_ZN6vectorIPN3euf9ac_pluginELb0EjE4backEv.exit:   ; preds = %entry._ZN6vectorIPN3euf9ac_pluginELb0EjE4backEv.exit_crit_edge, %if.end.i.i
  %dec.i.pre-phi = phi i32 [ %.pre1, %entry._ZN6vectorIPN3euf9ac_pluginELb0EjE4backEv.exit_crit_edge ], [ %2, %if.end.i.i ]
  %retval.0.i.i = phi i64 [ 4294967295, %entry._ZN6vectorIPN3euf9ac_pluginELb0EjE4backEv.exit_crit_edge ], [ %3, %if.end.i.i ]
  %arrayidx.i1.i = getelementptr inbounds ptr, ptr %0, i64 %retval.0.i.i
  %4 = load ptr, ptr %arrayidx.i1.i, align 8
  %arrayidx.i = getelementptr inbounds i8, ptr %0, i64 -4
  store i32 %dec.i.pre-phi, ptr %arrayidx.i, align 4
  %vtable = load ptr, ptr %4, align 8
  %vfn = getelementptr inbounds i8, ptr %vtable, i64 56
  %5 = load ptr, ptr %vfn, align 8
  tail call void %5(ptr noundef nonnull align 8 dereferenceable(432) %4)
  ret void
}